target datalayout = "e-m:e-p270:32:32-p271:32:32-p272:64:64-i64:64-i128:128-f80:128-n8:16:32:64-S128"
target triple = "x86_64-pc-linux-gnu"

%struct.SDL_CameraDriver = type { ptr, ptr, %struct.SDL_CameraDriverImpl, ptr, ptr, %struct.SDL_PendingCameraEvent, ptr, %struct.SDL_AtomicInt, %struct.SDL_AtomicInt }
%struct.SDL_CameraDriverImpl = type { ptr, ptr, ptr, ptr, ptr, ptr, ptr, ptr, i8 }
%struct.SDL_PendingCameraEvent = type { i32, i32, ptr }
%struct.SDL_AtomicInt = type { i32 }
%struct.SDL_Camera = type { ptr, ptr, i32, %struct.SDL_AtomicInt, ptr, ptr, ptr, ptr, i32, %struct.SDL_CameraSpec, %struct.SDL_CameraSpec, i32, ptr, i32, i64, i64, ptr, ptr, [8 x %struct.SurfaceList], %struct.SurfaceList, %struct.SurfaceList, %struct.SurfaceList, ptr, i32, i8, %struct.SDL_AtomicInt, %struct.SDL_AtomicInt, ptr, i32, i32, ptr }
%struct.SDL_CameraSpec = type { i32, i32, i32, i32, i32, i32 }
%struct.SurfaceList = type { ptr, i64, ptr }

@camera_driver = internal global %struct.SDL_CameraDriver zeroinitializer, align 8

; Function Attrs: nounwind uwtable
define hidden void @UnrefPhysicalCamera(ptr noundef %0) #0 {
  %2 = alloca ptr, align 8
  store ptr %0, ptr %2, align 8
  %3 = load ptr, ptr %2, align 8
  %4 = getelementptr inbounds nuw %struct.SDL_Camera, ptr %3, i32 0, i32 3
  %5 = call i32 @SDL_AddAtomicInt_REAL(ptr noundef %4, i32 noundef -1)
  %6 = icmp eq i32 %5, 1
  br i1 %6, label %7, label %20

7:                                                ; preds = %1
  %8 = load ptr, ptr getelementptr inbounds nuw (%struct.SDL_CameraDriver, ptr @camera_driver, i32 0, i32 3), align 8
  call void @SDL_LockRWLockForWriting_REAL(ptr noundef %8)
  %9 = load ptr, ptr getelementptr inbounds nuw (%struct.SDL_CameraDriver, ptr @camera_driver, i32 0, i32 4), align 8
  %10 = load ptr, ptr %2, align 8
  %11 = getelementptr inbounds nuw %struct.SDL_Camera, ptr %10, i32 0, i32 11
  %12 = load i32, ptr %11, align 4
  %13 = zext i32 %12 to i64
  %14 = inttoptr i64 %13 to ptr
  %15 = call zeroext i1 @SDL_RemoveFromHashTable(ptr noundef %9, ptr noundef %14)
  br i1 %15, label %16, label %18

16:                                               ; preds = %7
  %17 = call i32 @SDL_AddAtomicInt_REAL(ptr noundef getelementptr inbounds nuw (%struct.SDL_CameraDriver, ptr @camera_driver, i32 0, i32 7), i32 noundef -1)
  br label %18

18:                                               ; preds = %16, %7
  %19 = load ptr, ptr getelementptr inbounds nuw (%struct.SDL_CameraDriver, ptr @camera_driver, i32 0, i32 3), align 8
  call void @SDL_UnlockRWLock_REAL(ptr noundef %19)
  br label %20

20:                                               ; preds = %18, %1
  ret void
}

; Function Attrs: nounwind uwtable
define internal void @ReleaseCamera(ptr noundef %0) #0 {
  %2 = alloca ptr, align 8
  store ptr %0, ptr %2, align 8
  %3 = load ptr, ptr %2, align 8
  %4 = icmp ne ptr %3, null
  br i1 %4, label %5, label %10

5:                                                ; preds = %1
  %6 = load ptr, ptr %2, align 8
  %7 = getelementptr inbounds nuw %struct.SDL_Camera, ptr %6, i32 0, i32 0
  %8 = load ptr, ptr %7, align 8
  call void @SDL_UnlockMutex_REAL(ptr noundef %8)
  %9 = load ptr, ptr %2, align 8
  call void @UnrefPhysicalCamera(ptr noundef %9)
  br label %10

10:                                               ; preds = %5, %1
  ret void
}

; Function Attrs: nounwind uwtable
define hidden i32 @SDL_GetCameraPosition_REAL(i32 noundef %0) #0 {
  %2 = alloca i32, align 4
  %3 = alloca i32, align 4
  %4 = alloca ptr, align 8
  store i32 %0, ptr %2, align 4
  call void @llvm.lifetime.start.p0(i64 4, ptr %3) #7
  store i32 0, ptr %3, align 4
  call void @llvm.lifetime.start.p0(i64 8, ptr %4) #7
  %5 = load i32, ptr %2, align 4
  %6 = call ptr @ObtainPhysicalCamera(i32 noundef %5)
  store ptr %6, ptr %4, align 8
  %7 = load ptr, ptr %4, align 8
  %8 = icmp ne ptr %7, null
  br i1 %8, label %9, label %14

9:                                                ; preds = %1
  %10 = load ptr, ptr %4, align 8
  %11 = getelementptr inbounds nuw %struct.SDL_Camera, ptr %10, i32 0, i32 2
  %12 = load i32, ptr %11, align 8
  store i32 %12, ptr %3, align 4
  %13 = load ptr, ptr %4, align 8
  call void @ReleaseCamera(ptr noundef %13)
  br label %14

14:                                               ; preds = %9, %1
  %15 = load i32, ptr %3, align 4
  call void @llvm.lifetime.end.p0(i64 8, ptr %4) #7
  call void @llvm.lifetime.end.p0(i64 4, ptr %3) #7
  ret i32 %15
}