; Function Attrs: nounwind uwtable
define hidden i32 @SDL_GetCameraPosition_REAL(i32 noundef %0) local_unnamed_addr #1 {
  %2 = tail call fastcc ptr @ObtainPhysicalCamera(i32 noundef %0)
  %.not = icmp eq ptr %2, null
  br i1 %.not, label %ReleaseCamera.exit, label %3

3:                                                ; preds = %1
  %4 = getelementptr inbounds nuw i8, ptr %2, i64 16
  %5 = load i32, ptr %4, align 8
  %6 = load ptr, ptr %2, align 8
  tail call void @SDL_UnlockMutex_REAL(ptr noundef %6) #11
  %7 = getelementptr inbounds nuw i8, ptr %2, i64 20
  %8 = tail call i32 @SDL_AddAtomicInt_REAL(ptr noundef nonnull %7, i32 noundef -1) #11
  %9 = icmp eq i32 %8, 1
  br i1 %9, label %10, label %ReleaseCamera.exit

10:                                               ; preds = %3
  %11 = load ptr, ptr getelementptr inbounds nuw (i8, ptr @camera_driver, i64 88), align 8
  tail call void @SDL_LockRWLockForWriting_REAL(ptr noundef %11) #11
  %12 = load ptr, ptr getelementptr inbounds nuw (i8, ptr @camera_driver, i64 96), align 8
  %13 = getelementptr inbounds nuw i8, ptr %2, i64 108
  %14 = load i32, ptr %13, align 4
  %15 = zext i32 %14 to i64
  %16 = inttoptr i64 %15 to ptr
  %17 = tail call zeroext i1 @SDL_RemoveFromHashTable(ptr noundef %12, ptr noundef %16) #11
  br i1 %17, label %18, label %20

18:                                               ; preds = %10
  %19 = tail call i32 @SDL_AddAtomicInt_REAL(ptr noundef nonnull getelementptr inbounds nuw (i8, ptr @camera_driver, i64 128), i32 noundef -1) #11
  br label %20

20:                                               ; preds = %18, %10
  %21 = load ptr, ptr getelementptr inbounds nuw (i8, ptr @camera_driver, i64 88), align 8
  tail call void @SDL_UnlockRWLock_REAL(ptr noundef %21) #11
  br label %ReleaseCamera.exit

ReleaseCamera.exit:                               ; preds = %20, %3, %1
  %.0 = phi i32 [ 0, %1 ], [ %5, %3 ], [ %5, %20 ]
  ret i32 %.0
}